; Function Attrs: mustprogress nounwind uwtable
define dso_local void @_ZN4node9inspector8protocol14UberDispatcher14setupRedirectsERKSt13unordered_mapINSt7__cxx1112basic_stringIcSt11char_traitsIcESaIcEEES9_St4hashIS9_ESt8equal_toIS9_ESaISt4pairIKS9_S9_EEE(ptr noundef nonnull align 8 dereferenceable(128) %this, ptr nocapture noundef nonnull readonly align 8 dereferenceable(56) %redirects) local_unnamed_addr #1 align 2 {
entry:
  %_M_before_begin.i.i.i = getelementptr inbounds i8, ptr %redirects, i64 16
  %__begin2.sroa.0.05 = load ptr, ptr %_M_before_begin.i.i.i, align 8
  %cmp.i.not6 = icmp eq ptr %__begin2.sroa.0.05, null
  br i1 %cmp.i.not6, label %for.end, label %for.body.lr.ph

for.body.lr.ph:                                   ; preds = %entry
  %m_redirects = getelementptr inbounds i8, ptr %this, i64 16
  br label %for.body

for.body:                                         ; preds = %for.body.lr.ph, %for.body
  %__begin2.sroa.0.07 = phi ptr [ %__begin2.sroa.0.05, %for.body.lr.ph ], [ %__begin2.sroa.0.0, %for.body ]
  %add.ptr.i = getelementptr inbounds i8, ptr %__begin2.sroa.0.07, i64 8
  %second = getelementptr inbounds i8, ptr %__begin2.sroa.0.07, i64 40
  %call.i = tail call noundef nonnull align 8 dereferenceable(32) ptr @_ZNSt8__detail9_Map_baseINSt7__cxx1112basic_stringIcSt11char_traitsIcESaIcEEESt4pairIKS6_S6_ESaIS9_ENS_10_Select1stESt8equal_toIS6_ESt4hashIS6_ENS_18_Mod_range_hashingENS_20_Default_ranged_hashENS_20_Prime_rehash_policyENS_17_Hashtable_traitsILb1ELb0ELb1EEELb1EEixERS8_(ptr noundef nonnull align 1 dereferenceable(1) %m_redirects, ptr noundef nonnull align 8 dereferenceable(32) %add.ptr.i)
  %call9 = tail call noundef nonnull align 8 dereferenceable(32) ptr @_ZNSt7__cxx1112basic_stringIcSt11char_traitsIcESaIcEEaSERKS4_(ptr noundef nonnull align 8 dereferenceable(32) %call.i, ptr noundef nonnull align 8 dereferenceable(32) %second) #27
  %__begin2.sroa.0.0 = load ptr, ptr %__begin2.sroa.0.07, align 8
  %cmp.i.not = icmp eq ptr %__begin2.sroa.0.0, null
  br i1 %cmp.i.not, label %for.end, label %for.body

for.end:                                          ; preds = %for.body, %entry
  ret void
}